; Function Attrs: nounwind uwtable
define internal fastcc ptr @bio_f_watchccs_filter() unnamed_addr #1 {
  %1 = load ptr, ptr @method_watchccs, align 8, !tbaa !19
  %2 = icmp eq ptr %1, null
  br i1 %2, label %3, label %._crit_edge

3:                                                ; preds = %0
  %4 = tail call ptr @BIO_meth_new(i32 noundef 640, ptr noundef nonnull @.str.44) #7
  store ptr %4, ptr @method_watchccs, align 8, !tbaa !19
  %5 = icmp eq ptr %4, null
  br i1 %5, label %._crit_edge, label %6

6:                                                ; preds = %3
  %7 = tail call i32 @BIO_meth_set_write(ptr noundef nonnull %4, ptr noundef nonnull @watchccs_write) #7
  %.not = icmp eq i32 %7, 0
  br i1 %.not, label %._crit_edge, label %8

8:                                                ; preds = %6
  %9 = load ptr, ptr @method_watchccs, align 8, !tbaa !19
  %10 = tail call i32 @BIO_meth_set_read(ptr noundef %9, ptr noundef nonnull @watchccs_read) #7
  %.not2 = icmp eq i32 %10, 0
  br i1 %.not2, label %._crit_edge, label %11

11:                                               ; preds = %8
  %12 = load ptr, ptr @method_watchccs, align 8, !tbaa !19
  %13 = tail call i32 @BIO_meth_set_puts(ptr noundef %12, ptr noundef nonnull @watchccs_puts) #7
  %.not3 = icmp eq i32 %13, 0
  br i1 %.not3, label %._crit_edge, label %14

14:                                               ; preds = %11
  %15 = load ptr, ptr @method_watchccs, align 8, !tbaa !19
  %16 = tail call i32 @BIO_meth_set_gets(ptr noundef %15, ptr noundef nonnull @watchccs_gets) #7
  %.not4 = icmp eq i32 %16, 0
  br i1 %.not4, label %._crit_edge, label %17

17:                                               ; preds = %14
  %18 = load ptr, ptr @method_watchccs, align 8, !tbaa !19
  %19 = tail call i32 @BIO_meth_set_ctrl(ptr noundef %18, ptr noundef nonnull @watchccs_ctrl) #7
  %.not5 = icmp eq i32 %19, 0
  br i1 %.not5, label %._crit_edge, label %20

20:                                               ; preds = %17
  %21 = load ptr, ptr @method_watchccs, align 8, !tbaa !19
  %22 = tail call i32 @BIO_meth_set_create(ptr noundef %21, ptr noundef nonnull @watchccs_new) #7
  %.not6 = icmp eq i32 %22, 0
  br i1 %.not6, label %._crit_edge, label %23

23:                                               ; preds = %20
  %24 = load ptr, ptr @method_watchccs, align 8, !tbaa !19
  %25 = tail call i32 @BIO_meth_set_destroy(ptr noundef %24, ptr noundef nonnull @watchccs_free) #7
  %.not7 = icmp eq i32 %25, 0
  %.pre = load ptr, ptr @method_watchccs, align 8
  %spec.select = select i1 %.not7, ptr null, ptr %.pre
  br label %._crit_edge

._crit_edge:                                      ; preds = %23, %0, %3, %6, %8, %11, %14, %17, %20
  %.0 = phi ptr [ null, %20 ], [ null, %17 ], [ null, %14 ], [ null, %11 ], [ null, %8 ], [ null, %6 ], [ null, %3 ], [ %1, %0 ], [ %spec.select, %23 ]
  ret ptr %.0
}